target datalayout = "e-m:e-p270:32:32-p271:32:32-p272:64:64-i64:64-i128:128-f80:128-n8:16:32:64-S128"
target triple = "x86_64-unknown-linux-gnu"

%"struct.OpenImageIO_v2_6_0::TypeDesc" = type { i8, i8, i8, i8, i32 }

@stderr = external global ptr, align 8
@.str = private unnamed_addr constant [58 x i8] c"%s:%u: %s: Assertion '%s' failed: Unknown data format %d\0A\00", align 1
@.str.2 = private unnamed_addr constant [128 x i8] c"generated/home/dtcxzyw/WorkSpace/Projects/compilers/llvm-opt-benchmark/bench/oiio/OpenImageIO/src/libOpenImageIO/formatspec.cpp\00", align 1
@__FUNCTION__._ZN18OpenImageIO_v2_6_03pvt20get_default_quantizeENS_8TypeDescERxS2_ = private unnamed_addr constant [21 x i8] c"get_default_quantize\00", align 1
@.str.3 = private unnamed_addr constant [2 x i8] c"0\00", align 1

; Function Attrs: mustprogress nounwind uwtable
define linkonce_odr noundef i64 @_ZNSt14numeric_limitsIyE3maxEv() #4 comdat align 2 {
entry:
  ret i64 -1
}

; Function Attrs: mustprogress nounwind uwtable
define linkonce_odr noundef i64 @_ZNSt14numeric_limitsIyE3minEv() #4 comdat align 2 {
entry:
  ret i64 0
}

; Function Attrs: mustprogress nounwind uwtable
define linkonce_odr noundef i64 @_ZNSt14numeric_limitsIxE3maxEv() #4 comdat align 2 {
entry:
  ret i64 9223372036854775807
}

; Function Attrs: mustprogress nounwind uwtable
define linkonce_odr noundef i64 @_ZNSt14numeric_limitsIxE3minEv() #4 comdat align 2 {
entry:
  ret i64 -9223372036854775808
}

; Function Attrs: mustprogress nounwind uwtable
define linkonce_odr noundef i32 @_ZNSt14numeric_limitsIjE3maxEv() #4 comdat align 2 {
entry:
  ret i32 -1
}

; Function Attrs: mustprogress nounwind uwtable
define linkonce_odr noundef i32 @_ZNSt14numeric_limitsIjE3minEv() #4 comdat align 2 {
entry:
  ret i32 0
}

; Function Attrs: mustprogress nounwind uwtable
define linkonce_odr noundef i32 @_ZNSt14numeric_limitsIiE3maxEv() #4 comdat align 2 {
entry:
  ret i32 2147483647
}

; Function Attrs: mustprogress nounwind uwtable
define linkonce_odr noundef i32 @_ZNSt14numeric_limitsIiE3minEv() #4 comdat align 2 {
entry:
  ret i32 -2147483648
}

; Function Attrs: mustprogress nounwind uwtable
define linkonce_odr noundef signext i16 @_ZNSt14numeric_limitsIsE3maxEv() #4 comdat align 2 {
entry:
  ret i16 32767
}

; Function Attrs: mustprogress nounwind uwtable
define linkonce_odr noundef signext i16 @_ZNSt14numeric_limitsIsE3minEv() #4 comdat align 2 {
entry:
  ret i16 -32768
}

; Function Attrs: mustprogress nounwind uwtable
define linkonce_odr noundef signext i8 @_ZNSt14numeric_limitsIcE3maxEv() #4 comdat align 2 {
entry:
  ret i8 127
}

; Function Attrs: mustprogress nounwind uwtable
define linkonce_odr noundef signext i8 @_ZNSt14numeric_limitsIcE3minEv() #4 comdat align 2 {
entry:
  ret i8 -128
}

; Function Attrs: mustprogress nounwind uwtable
define linkonce_odr noundef zeroext i16 @_ZNSt14numeric_limitsItE3maxEv() #4 comdat align 2 {
entry:
  ret i16 -1
}

; Function Attrs: mustprogress nounwind uwtable
define linkonce_odr noundef zeroext i16 @_ZNSt14numeric_limitsItE3minEv() #4 comdat align 2 {
entry:
  ret i16 0
}

; Function Attrs: mustprogress nounwind uwtable
define linkonce_odr noundef zeroext i8 @_ZNSt14numeric_limitsIhE3maxEv() #4 comdat align 2 {
entry:
  ret i8 -1
}

; Function Attrs: mustprogress nounwind uwtable
define linkonce_odr noundef zeroext i8 @_ZNSt14numeric_limitsIhE3minEv() #4 comdat align 2 {
entry:
  ret i8 0
}

; Function Attrs: noreturn nounwind uwtable
define linkonce_odr hidden void @__clang_call_terminate(ptr noundef %0) #8 comdat {
  %2 = call ptr @__cxa_begin_catch(ptr %0) #3
  call void @_ZSt9terminatev() #21
  unreachable
}

; Function Attrs: mustprogress nounwind uwtable
define linkonce_odr hidden void @_ZN18OpenImageIO_v2_6_021get_default_quantize_IdEEvRxS1_(ptr noundef nonnull align 8 dereferenceable(8) %quant_min, ptr noundef nonnull align 8 dereferenceable(8) %quant_max) #4 comdat {
entry:
  %quant_min.addr = alloca ptr, align 8
  %quant_max.addr = alloca ptr, align 8
  store ptr %quant_min, ptr %quant_min.addr, align 8
  store ptr %quant_max, ptr %quant_max.addr, align 8
  %0 = load ptr, ptr %quant_min.addr, align 8
  store i64 0, ptr %0, align 8
  %1 = load ptr, ptr %quant_max.addr, align 8
  store i64 0, ptr %1, align 8
  ret void
}

; Function Attrs: mustprogress nounwind uwtable
define linkonce_odr hidden void @_ZN18OpenImageIO_v2_6_021get_default_quantize_IyEEvRxS1_(ptr noundef nonnull align 8 dereferenceable(8) %quant_min, ptr noundef nonnull align 8 dereferenceable(8) %quant_max) #4 comdat {
entry:
  %quant_min.addr = alloca ptr, align 8
  %quant_max.addr = alloca ptr, align 8
  store ptr %quant_min, ptr %quant_min.addr, align 8
  store ptr %quant_max, ptr %quant_max.addr, align 8
  %call = call noundef i64 @_ZNSt14numeric_limitsIyE3minEv() #3
  %0 = load ptr, ptr %quant_min.addr, align 8
  store i64 %call, ptr %0, align 8
  %call1 = call noundef i64 @_ZNSt14numeric_limitsIyE3maxEv() #3
  %1 = load ptr, ptr %quant_max.addr, align 8
  store i64 %call1, ptr %1, align 8
  ret void
}

; Function Attrs: mustprogress nounwind uwtable
define linkonce_odr hidden void @_ZN18OpenImageIO_v2_6_021get_default_quantize_IxEEvRxS1_(ptr noundef nonnull align 8 dereferenceable(8) %quant_min, ptr noundef nonnull align 8 dereferenceable(8) %quant_max) #4 comdat {
entry:
  %quant_min.addr = alloca ptr, align 8
  %quant_max.addr = alloca ptr, align 8
  store ptr %quant_min, ptr %quant_min.addr, align 8
  store ptr %quant_max, ptr %quant_max.addr, align 8
  %call = call noundef i64 @_ZNSt14numeric_limitsIxE3minEv() #3
  %0 = load ptr, ptr %quant_min.addr, align 8
  store i64 %call, ptr %0, align 8
  %call1 = call noundef i64 @_ZNSt14numeric_limitsIxE3maxEv() #3
  %1 = load ptr, ptr %quant_max.addr, align 8
  store i64 %call1, ptr %1, align 8
  ret void
}

; Function Attrs: mustprogress nounwind uwtable
define linkonce_odr hidden void @_ZN18OpenImageIO_v2_6_021get_default_quantize_IjEEvRxS1_(ptr noundef nonnull align 8 dereferenceable(8) %quant_min, ptr noundef nonnull align 8 dereferenceable(8) %quant_max) #4 comdat {
entry:
  %quant_min.addr = alloca ptr, align 8
  %quant_max.addr = alloca ptr, align 8
  store ptr %quant_min, ptr %quant_min.addr, align 8
  store ptr %quant_max, ptr %quant_max.addr, align 8
  %call = call noundef i32 @_ZNSt14numeric_limitsIjE3minEv() #3
  %conv = zext i32 %call to i64
  %0 = load ptr, ptr %quant_min.addr, align 8
  store i64 %conv, ptr %0, align 8
  %call1 = call noundef i32 @_ZNSt14numeric_limitsIjE3maxEv() #3
  %conv2 = zext i32 %call1 to i64
  %1 = load ptr, ptr %quant_max.addr, align 8
  store i64 %conv2, ptr %1, align 8
  ret void
}

; Function Attrs: mustprogress nounwind uwtable
define linkonce_odr hidden void @_ZN18OpenImageIO_v2_6_021get_default_quantize_IiEEvRxS1_(ptr noundef nonnull align 8 dereferenceable(8) %quant_min, ptr noundef nonnull align 8 dereferenceable(8) %quant_max) #4 comdat {
entry:
  %quant_min.addr = alloca ptr, align 8
  %quant_max.addr = alloca ptr, align 8
  store ptr %quant_min, ptr %quant_min.addr, align 8
  store ptr %quant_max, ptr %quant_max.addr, align 8
  %call = call noundef i32 @_ZNSt14numeric_limitsIiE3minEv() #3
  %conv = sext i32 %call to i64
  %0 = load ptr, ptr %quant_min.addr, align 8
  store i64 %conv, ptr %0, align 8
  %call1 = call noundef i32 @_ZNSt14numeric_limitsIiE3maxEv() #3
  %conv2 = sext i32 %call1 to i64
  %1 = load ptr, ptr %quant_max.addr, align 8
  store i64 %conv2, ptr %1, align 8
  ret void
}

; Function Attrs: mustprogress nounwind uwtable
define linkonce_odr hidden void @_ZN18OpenImageIO_v2_6_021get_default_quantize_IsEEvRxS1_(ptr noundef nonnull align 8 dereferenceable(8) %quant_min, ptr noundef nonnull align 8 dereferenceable(8) %quant_max) #4 comdat {
entry:
  %quant_min.addr = alloca ptr, align 8
  %quant_max.addr = alloca ptr, align 8
  store ptr %quant_min, ptr %quant_min.addr, align 8
  store ptr %quant_max, ptr %quant_max.addr, align 8
  %call = call noundef signext i16 @_ZNSt14numeric_limitsIsE3minEv() #3
  %conv = sext i16 %call to i64
  %0 = load ptr, ptr %quant_min.addr, align 8
  store i64 %conv, ptr %0, align 8
  %call1 = call noundef signext i16 @_ZNSt14numeric_limitsIsE3maxEv() #3
  %conv2 = sext i16 %call1 to i64
  %1 = load ptr, ptr %quant_max.addr, align 8
  store i64 %conv2, ptr %1, align 8
  ret void
}

; Function Attrs: mustprogress nounwind uwtable
define linkonce_odr hidden void @_ZN18OpenImageIO_v2_6_021get_default_quantize_IcEEvRxS1_(ptr noundef nonnull align 8 dereferenceable(8) %quant_min, ptr noundef nonnull align 8 dereferenceable(8) %quant_max) #4 comdat {
entry:
  %quant_min.addr = alloca ptr, align 8
  %quant_max.addr = alloca ptr, align 8
  store ptr %quant_min, ptr %quant_min.addr, align 8
  store ptr %quant_max, ptr %quant_max.addr, align 8
  %call = call noundef signext i8 @_ZNSt14numeric_limitsIcE3minEv() #3
  %conv = sext i8 %call to i64
  %0 = load ptr, ptr %quant_min.addr, align 8
  store i64 %conv, ptr %0, align 8
  %call1 = call noundef signext i8 @_ZNSt14numeric_limitsIcE3maxEv() #3
  %conv2 = sext i8 %call1 to i64
  %1 = load ptr, ptr %quant_max.addr, align 8
  store i64 %conv2, ptr %1, align 8
  ret void
}

; Function Attrs: mustprogress nounwind uwtable
define linkonce_odr hidden void @_ZN18OpenImageIO_v2_6_021get_default_quantize_IfEEvRxS1_(ptr noundef nonnull align 8 dereferenceable(8) %quant_min, ptr noundef nonnull align 8 dereferenceable(8) %quant_max) #4 comdat {
entry:
  %quant_min.addr = alloca ptr, align 8
  %quant_max.addr = alloca ptr, align 8
  store ptr %quant_min, ptr %quant_min.addr, align 8
  store ptr %quant_max, ptr %quant_max.addr, align 8
  %0 = load ptr, ptr %quant_min.addr, align 8
  store i64 0, ptr %0, align 8
  %1 = load ptr, ptr %quant_max.addr, align 8
  store i64 0, ptr %1, align 8
  ret void
}

; Function Attrs: mustprogress nounwind uwtable
define linkonce_odr hidden void @_ZN18OpenImageIO_v2_6_021get_default_quantize_I4halfEEvRxS2_(ptr noundef nonnull align 8 dereferenceable(8) %quant_min, ptr noundef nonnull align 8 dereferenceable(8) %quant_max) #4 comdat {
entry:
  %quant_min.addr = alloca ptr, align 8
  %quant_max.addr = alloca ptr, align 8
  store ptr %quant_min, ptr %quant_min.addr, align 8
  store ptr %quant_max, ptr %quant_max.addr, align 8
  %0 = load ptr, ptr %quant_min.addr, align 8
  store i64 0, ptr %0, align 8
  %1 = load ptr, ptr %quant_max.addr, align 8
  store i64 0, ptr %1, align 8
  ret void
}

; Function Attrs: mustprogress nounwind uwtable
define linkonce_odr hidden void @_ZN18OpenImageIO_v2_6_021get_default_quantize_ItEEvRxS1_(ptr noundef nonnull align 8 dereferenceable(8) %quant_min, ptr noundef nonnull align 8 dereferenceable(8) %quant_max) #4 comdat {
entry:
  %quant_min.addr = alloca ptr, align 8
  %quant_max.addr = alloca ptr, align 8
  store ptr %quant_min, ptr %quant_min.addr, align 8
  store ptr %quant_max, ptr %quant_max.addr, align 8
  %call = call noundef zeroext i16 @_ZNSt14numeric_limitsItE3minEv() #3
  %conv = zext i16 %call to i64
  %0 = load ptr, ptr %quant_min.addr, align 8
  store i64 %conv, ptr %0, align 8
  %call1 = call noundef zeroext i16 @_ZNSt14numeric_limitsItE3maxEv() #3
  %conv2 = zext i16 %call1 to i64
  %1 = load ptr, ptr %quant_max.addr, align 8
  store i64 %conv2, ptr %1, align 8
  ret void
}

; Function Attrs: mustprogress nounwind uwtable
define linkonce_odr hidden void @_ZN18OpenImageIO_v2_6_021get_default_quantize_IhEEvRxS1_(ptr noundef nonnull align 8 dereferenceable(8) %quant_min, ptr noundef nonnull align 8 dereferenceable(8) %quant_max) #4 comdat {
entry:
  %quant_min.addr = alloca ptr, align 8
  %quant_max.addr = alloca ptr, align 8
  store ptr %quant_min, ptr %quant_min.addr, align 8
  store ptr %quant_max, ptr %quant_max.addr, align 8
  %call = call noundef zeroext i8 @_ZNSt14numeric_limitsIhE3minEv() #3
  %conv = zext i8 %call to i64
  %0 = load ptr, ptr %quant_min.addr, align 8
  store i64 %conv, ptr %0, align 8
  %call1 = call noundef zeroext i8 @_ZNSt14numeric_limitsIhE3maxEv() #3
  %conv2 = zext i8 %call1 to i64
  %1 = load ptr, ptr %quant_max.addr, align 8
  store i64 %conv2, ptr %1, align 8
  ret void
}

; Function Attrs: mustprogress nounwind uwtable
define hidden void @_ZN18OpenImageIO_v2_6_03pvt20get_default_quantizeENS_8TypeDescERxS2_(ptr noundef %format, ptr noundef nonnull align 8 dereferenceable(8) %quant_min, ptr noundef nonnull align 8 dereferenceable(8) %quant_max) #4 personality ptr @__gxx_personality_v0 {
entry:
  %format.indirect_addr = alloca ptr, align 8
  %quant_min.addr = alloca ptr, align 8
  %quant_max.addr = alloca ptr, align 8
  store ptr %format, ptr %format.indirect_addr, align 8
  store ptr %quant_min, ptr %quant_min.addr, align 8
  store ptr %quant_max, ptr %quant_max.addr, align 8
  %basetype = getelementptr inbounds %"struct.OpenImageIO_v2_6_0::TypeDesc", ptr %format, i32 0, i32 0
  %0 = load i8, ptr %basetype, align 4
  %conv = zext i8 %0 to i32
  switch i32 %conv, label %sw.default [
    i32 0, label %sw.bb
    i32 2, label %sw.bb
    i32 4, label %sw.bb1
    i32 10, label %sw.bb2
    i32 11, label %sw.bb3
    i32 3, label %sw.bb4
    i32 5, label %sw.bb5
    i32 7, label %sw.bb6
    i32 6, label %sw.bb7
    i32 9, label %sw.bb8
    i32 8, label %sw.bb9
    i32 12, label %sw.bb10
  ]

sw.bb:                                            ; preds = %entry, %entry
  %1 = load ptr, ptr %quant_min.addr, align 8
  %2 = load ptr, ptr %quant_max.addr, align 8
  call void @_ZN18OpenImageIO_v2_6_021get_default_quantize_IhEEvRxS1_(ptr noundef nonnull align 8 dereferenceable(8) %1, ptr noundef nonnull align 8 dereferenceable(8) %2) #3
  br label %sw.epilog

sw.bb1:                                           ; preds = %entry
  %3 = load ptr, ptr %quant_min.addr, align 8
  %4 = load ptr, ptr %quant_max.addr, align 8
  call void @_ZN18OpenImageIO_v2_6_021get_default_quantize_ItEEvRxS1_(ptr noundef nonnull align 8 dereferenceable(8) %3, ptr noundef nonnull align 8 dereferenceable(8) %4) #3
  br label %sw.epilog

sw.bb2:                                           ; preds = %entry
  %5 = load ptr, ptr %quant_min.addr, align 8
  %6 = load ptr, ptr %quant_max.addr, align 8
  call void @_ZN18OpenImageIO_v2_6_021get_default_quantize_I4halfEEvRxS2_(ptr noundef nonnull align 8 dereferenceable(8) %5, ptr noundef nonnull align 8 dereferenceable(8) %6) #3
  br label %sw.epilog

sw.bb3:                                           ; preds = %entry
  %7 = load ptr, ptr %quant_min.addr, align 8
  %8 = load ptr, ptr %quant_max.addr, align 8
  call void @_ZN18OpenImageIO_v2_6_021get_default_quantize_IfEEvRxS1_(ptr noundef nonnull align 8 dereferenceable(8) %7, ptr noundef nonnull align 8 dereferenceable(8) %8) #3
  br label %sw.epilog

sw.bb4:                                           ; preds = %entry
  %9 = load ptr, ptr %quant_min.addr, align 8
  %10 = load ptr, ptr %quant_max.addr, align 8
  call void @_ZN18OpenImageIO_v2_6_021get_default_quantize_IcEEvRxS1_(ptr noundef nonnull align 8 dereferenceable(8) %9, ptr noundef nonnull align 8 dereferenceable(8) %10) #3
  br label %sw.epilog

sw.bb5:                                           ; preds = %entry
  %11 = load ptr, ptr %quant_min.addr, align 8
  %12 = load ptr, ptr %quant_max.addr, align 8
  call void @_ZN18OpenImageIO_v2_6_021get_default_quantize_IsEEvRxS1_(ptr noundef nonnull align 8 dereferenceable(8) %11, ptr noundef nonnull align 8 dereferenceable(8) %12) #3
  br label %sw.epilog

sw.bb6:                                           ; preds = %entry
  %13 = load ptr, ptr %quant_min.addr, align 8
  %14 = load ptr, ptr %quant_max.addr, align 8
  call void @_ZN18OpenImageIO_v2_6_021get_default_quantize_IiEEvRxS1_(ptr noundef nonnull align 8 dereferenceable(8) %13, ptr noundef nonnull align 8 dereferenceable(8) %14) #3
  br label %sw.epilog

sw.bb7:                                           ; preds = %entry
  %15 = load ptr, ptr %quant_min.addr, align 8
  %16 = load ptr, ptr %quant_max.addr, align 8
  call void @_ZN18OpenImageIO_v2_6_021get_default_quantize_IjEEvRxS1_(ptr noundef nonnull align 8 dereferenceable(8) %15, ptr noundef nonnull align 8 dereferenceable(8) %16) #3
  br label %sw.epilog

sw.bb8:                                           ; preds = %entry
  %17 = load ptr, ptr %quant_min.addr, align 8
  %18 = load ptr, ptr %quant_max.addr, align 8
  call void @_ZN18OpenImageIO_v2_6_021get_default_quantize_IxEEvRxS1_(ptr noundef nonnull align 8 dereferenceable(8) %17, ptr noundef nonnull align 8 dereferenceable(8) %18) #3
  br label %sw.epilog

sw.bb9:                                           ; preds = %entry
  %19 = load ptr, ptr %quant_min.addr, align 8
  %20 = load ptr, ptr %quant_max.addr, align 8
  call void @_ZN18OpenImageIO_v2_6_021get_default_quantize_IyEEvRxS1_(ptr noundef nonnull align 8 dereferenceable(8) %19, ptr noundef nonnull align 8 dereferenceable(8) %20) #3
  br label %sw.epilog

sw.bb10:                                          ; preds = %entry
  %21 = load ptr, ptr %quant_min.addr, align 8
  %22 = load ptr, ptr %quant_max.addr, align 8
  call void @_ZN18OpenImageIO_v2_6_021get_default_quantize_IdEEvRxS1_(ptr noundef nonnull align 8 dereferenceable(8) %21, ptr noundef nonnull align 8 dereferenceable(8) %22) #3
  br label %sw.epilog

sw.default:                                       ; preds = %entry
  %23 = load ptr, ptr @stderr, align 8
  %basetype11 = getelementptr inbounds %"struct.OpenImageIO_v2_6_0::TypeDesc", ptr %format, i32 0, i32 0
  %24 = load i8, ptr %basetype11, align 4
  %conv12 = zext i8 %24 to i32
  %call = invoke i32 (ptr, ptr, ...) @fprintf(ptr noundef %23, ptr noundef @.str, ptr noundef @.str.2, i32 noundef 95, ptr noundef @__FUNCTION__._ZN18OpenImageIO_v2_6_03pvt20get_default_quantizeENS_8TypeDescERxS2_, ptr noundef @.str.3, i32 noundef %conv12)
          to label %invoke.cont unwind label %terminate.lpad

invoke.cont:                                      ; preds = %sw.default
  br label %sw.epilog

sw.epilog:                                        ; preds = %invoke.cont, %sw.bb10, %sw.bb9, %sw.bb8, %sw.bb7, %sw.bb6, %sw.bb5, %sw.bb4, %sw.bb3, %sw.bb2, %sw.bb1, %sw.bb
  ret void

terminate.lpad:                                   ; preds = %sw.default
  %25 = landingpad { ptr, i32 }
          catch ptr null
  %26 = extractvalue { ptr, i32 } %25, 0
  call void @__clang_call_terminate(ptr %26) #21
  unreachable
}