; Function Attrs: mustprogress nofree nounwind uwtable
define hidden void @_ZN18OpenImageIO_v2_6_03pvt20get_default_quantizeENS_8TypeDescERxS2_(ptr nocapture noundef readonly %format, ptr nocapture noundef nonnull writeonly align 8 dereferenceable(8) %quant_min, ptr nocapture noundef nonnull writeonly align 8 dereferenceable(8) %quant_max) local_unnamed_addr #6 personality ptr @__gxx_personality_v0 {
entry:
  %0 = load i8, ptr %format, align 4
  switch i8 %0, label %sw.default [
    i8 0, label %sw.bb
    i8 2, label %sw.bb
    i8 4, label %sw.bb1
    i8 10, label %sw.bb2
    i8 11, label %sw.bb3
    i8 3, label %sw.bb4
    i8 5, label %sw.bb5
    i8 7, label %sw.bb6
    i8 6, label %sw.bb7
    i8 9, label %sw.bb8
    i8 8, label %sw.bb9
    i8 12, label %sw.bb10
  ]

sw.bb:                                            ; preds = %entry, %entry
  store i64 0, ptr %quant_min, align 8
  store i64 255, ptr %quant_max, align 8
  br label %sw.epilog

sw.bb1:                                           ; preds = %entry
  store i64 0, ptr %quant_min, align 8
  store i64 65535, ptr %quant_max, align 8
  br label %sw.epilog

sw.bb2:                                           ; preds = %entry
  store i64 0, ptr %quant_min, align 8
  store i64 0, ptr %quant_max, align 8
  br label %sw.epilog

sw.bb3:                                           ; preds = %entry
  store i64 0, ptr %quant_min, align 8
  store i64 0, ptr %quant_max, align 8
  br label %sw.epilog

sw.bb4:                                           ; preds = %entry
  store i64 -128, ptr %quant_min, align 8
  store i64 127, ptr %quant_max, align 8
  br label %sw.epilog

sw.bb5:                                           ; preds = %entry
  store i64 -32768, ptr %quant_min, align 8
  store i64 32767, ptr %quant_max, align 8
  br label %sw.epilog

sw.bb6:                                           ; preds = %entry
  store i64 -2147483648, ptr %quant_min, align 8
  store i64 2147483647, ptr %quant_max, align 8
  br label %sw.epilog

sw.bb7:                                           ; preds = %entry
  store i64 0, ptr %quant_min, align 8
  store i64 4294967295, ptr %quant_max, align 8
  br label %sw.epilog

sw.bb8:                                           ; preds = %entry
  store i64 -9223372036854775808, ptr %quant_min, align 8
  store i64 9223372036854775807, ptr %quant_max, align 8
  br label %sw.epilog

sw.bb9:                                           ; preds = %entry
  store i64 0, ptr %quant_min, align 8
  store i64 -1, ptr %quant_max, align 8
  br label %sw.epilog

sw.bb10:                                          ; preds = %entry
  store i64 0, ptr %quant_min, align 8
  store i64 0, ptr %quant_max, align 8
  br label %sw.epilog

sw.default:                                       ; preds = %entry
  %conv = zext i8 %0 to i32
  %1 = load ptr, ptr @stderr, align 8
  %call = tail call i32 (ptr, ptr, ...) @fprintf(ptr noundef %1, ptr noundef nonnull @.str, ptr noundef nonnull @.str.2, i32 noundef 95, ptr noundef nonnull @__FUNCTION__._ZN18OpenImageIO_v2_6_03pvt20get_default_quantizeENS_8TypeDescERxS2_, ptr noundef nonnull @.str.3, i32 noundef %conv) #31
  br label %sw.epilog

sw.epilog:                                        ; preds = %sw.default, %sw.bb10, %sw.bb9, %sw.bb8, %sw.bb7, %sw.bb6, %sw.bb5, %sw.bb4, %sw.bb3, %sw.bb2, %sw.bb1, %sw.bb
  ret void
}